target datalayout = "e-m:e-p270:32:32-p271:32:32-p272:64:64-i64:64-i128:128-f80:128-n8:16:32:64-S128"
target triple = "x86_64-pc-linux-gnu"

%struct.ColorEntry = type { ptr, i32 }

; Function Attrs: inlinehint nounwind uwtable
define available_externally ptr @bsearch(ptr noundef nonnull %0, ptr noundef nonnull %1, i64 noundef %2, i64 noundef %3, ptr noundef nonnull %4) #7 {
  %6 = alloca ptr, align 8
  %7 = alloca ptr, align 8
  %8 = alloca ptr, align 8
  %9 = alloca i64, align 8
  %10 = alloca i64, align 8
  %11 = alloca ptr, align 8
  %12 = alloca i64, align 8
  %13 = alloca i64, align 8
  %14 = alloca i64, align 8
  %15 = alloca ptr, align 8
  %16 = alloca i32, align 4
  %17 = alloca i32, align 4
  store ptr %0, ptr %7, align 8, !tbaa !66
  store ptr %1, ptr %8, align 8, !tbaa !66
  store i64 %2, ptr %9, align 8, !tbaa !47
  store i64 %3, ptr %10, align 8, !tbaa !47
  store ptr %4, ptr %11, align 8, !tbaa !66
  call void @llvm.lifetime.start.p0(i64 8, ptr %12) #8
  call void @llvm.lifetime.start.p0(i64 8, ptr %13) #8
  call void @llvm.lifetime.start.p0(i64 8, ptr %14) #8
  call void @llvm.lifetime.start.p0(i64 8, ptr %15) #8
  call void @llvm.lifetime.start.p0(i64 4, ptr %16) #8
  store i64 0, ptr %12, align 8, !tbaa !47
  %18 = load i64, ptr %9, align 8, !tbaa !47
  store i64 %18, ptr %13, align 8, !tbaa !47
  br label %19

19:                                               ; preds = %50, %5
  %20 = load i64, ptr %12, align 8, !tbaa !47
  %21 = load i64, ptr %13, align 8, !tbaa !47
  %22 = icmp ult i64 %20, %21
  br i1 %22, label %23, label %51

23:                                               ; preds = %19
  %24 = load i64, ptr %12, align 8, !tbaa !47
  %25 = load i64, ptr %13, align 8, !tbaa !47
  %26 = add i64 %24, %25
  %27 = udiv i64 %26, 2
  store i64 %27, ptr %14, align 8, !tbaa !47
  %28 = load ptr, ptr %8, align 8, !tbaa !66
  %29 = load i64, ptr %14, align 8, !tbaa !47
  %30 = load i64, ptr %10, align 8, !tbaa !47
  %31 = mul i64 %29, %30
  %32 = getelementptr inbounds nuw i8, ptr %28, i64 %31
  store ptr %32, ptr %15, align 8, !tbaa !66
  %33 = load ptr, ptr %11, align 8, !tbaa !66
  %34 = load ptr, ptr %7, align 8, !tbaa !66
  %35 = load ptr, ptr %15, align 8, !tbaa !66
  %36 = call i32 %33(ptr noundef %34, ptr noundef %35)
  store i32 %36, ptr %16, align 4, !tbaa !46
  %37 = load i32, ptr %16, align 4, !tbaa !46
  %38 = icmp slt i32 %37, 0
  br i1 %38, label %39, label %41

39:                                               ; preds = %23
  %40 = load i64, ptr %14, align 8, !tbaa !47
  store i64 %40, ptr %13, align 8, !tbaa !47
  br label %50

41:                                               ; preds = %23
  %42 = load i32, ptr %16, align 4, !tbaa !46
  %43 = icmp sgt i32 %42, 0
  br i1 %43, label %44, label %47

44:                                               ; preds = %41
  %45 = load i64, ptr %14, align 8, !tbaa !47
  %46 = add i64 %45, 1
  store i64 %46, ptr %12, align 8, !tbaa !47
  br label %49

47:                                               ; preds = %41
  %48 = load ptr, ptr %15, align 8, !tbaa !66
  store ptr %48, ptr %6, align 8
  store i32 1, ptr %17, align 4
  br label %52

49:                                               ; preds = %44
  br label %50

50:                                               ; preds = %49, %39
  br label %19, !llvm.loop !67

51:                                               ; preds = %19
  store ptr null, ptr %6, align 8
  store i32 1, ptr %17, align 4
  br label %52

52:                                               ; preds = %51, %47
  call void @llvm.lifetime.end.p0(i64 4, ptr %16) #8
  call void @llvm.lifetime.end.p0(i64 8, ptr %15) #8
  call void @llvm.lifetime.end.p0(i64 8, ptr %14) #8
  call void @llvm.lifetime.end.p0(i64 8, ptr %13) #8
  call void @llvm.lifetime.end.p0(i64 8, ptr %12) #8
  %53 = load ptr, ptr %6, align 8
  ret ptr %53
}

; Function Attrs: nounwind uwtable
define internal i32 @hex_char_to_number(i8 noundef zeroext %0) #0 {
  %2 = alloca i8, align 1
  store i8 %0, ptr %2, align 1, !tbaa !42
  %3 = load i8, ptr %2, align 1, !tbaa !42
  %4 = zext i8 %3 to i64
  %5 = getelementptr inbounds nuw [256 x i8], ptr @hex_char_to_number.lut, i64 0, i64 %4
  %6 = load i8, ptr %5, align 1, !tbaa !42
  %7 = zext i8 %6 to i32
  ret i32 %7
}

; Function Attrs: nounwind uwtable
define internal i32 @color_string_to_rgba(ptr noundef %0, i64 noundef %1) #0 {
  %3 = alloca i32, align 4
  %4 = alloca ptr, align 8
  %5 = alloca i64, align 8
  %6 = alloca i32, align 4
  %7 = alloca ptr, align 8
  %8 = alloca [100 x i8], align 16
  %9 = alloca i32, align 4
  store ptr %0, ptr %4, align 8, !tbaa !43
  store i64 %1, ptr %5, align 8, !tbaa !47
  call void @llvm.lifetime.start.p0(i64 4, ptr %6) #8
  store i32 -16777216, ptr %6, align 4, !tbaa !46
  call void @llvm.lifetime.start.p0(i64 8, ptr %7) #8
  call void @llvm.lifetime.start.p0(i64 100, ptr %8) #8
  %10 = load ptr, ptr %4, align 8, !tbaa !43
  %11 = load i8, ptr %10, align 1, !tbaa !42
  %12 = sext i8 %11 to i32
  %13 = icmp eq i32 %12, 35
  br i1 %13, label %14, label %162

14:                                               ; preds = %2
  %15 = load ptr, ptr %4, align 8, !tbaa !43
  %16 = getelementptr inbounds nuw i8, ptr %15, i32 1
  store ptr %16, ptr %4, align 8, !tbaa !43
  %17 = load i64, ptr %5, align 8, !tbaa !47
  %18 = add i64 %17, -1
  store i64 %18, ptr %5, align 8, !tbaa !47
  %19 = load i64, ptr %5, align 8, !tbaa !47
  %20 = icmp eq i64 %19, 3
  br i1 %20, label %21, label %41

21:                                               ; preds = %14
  %22 = load ptr, ptr %4, align 8, !tbaa !43
  %23 = getelementptr inbounds i8, ptr %22, i64 2
  %24 = load i8, ptr %23, align 1, !tbaa !42
  %25 = call i32 @hex_char_to_number(i8 noundef zeroext %24)
  %26 = shl i32 %25, 4
  %27 = load ptr, ptr %4, align 8, !tbaa !43
  %28 = getelementptr inbounds i8, ptr %27, i64 1
  %29 = load i8, ptr %28, align 1, !tbaa !42
  %30 = call i32 @hex_char_to_number(i8 noundef zeroext %29)
  %31 = shl i32 %30, 12
  %32 = or i32 %26, %31
  %33 = load ptr, ptr %4, align 8, !tbaa !43
  %34 = getelementptr inbounds i8, ptr %33, i64 0
  %35 = load i8, ptr %34, align 1, !tbaa !42
  %36 = call i32 @hex_char_to_number(i8 noundef zeroext %35)
  %37 = shl i32 %36, 20
  %38 = or i32 %32, %37
  %39 = load i32, ptr %6, align 4, !tbaa !46
  %40 = or i32 %39, %38
  store i32 %40, ptr %6, align 4, !tbaa !46
  br label %161

41:                                               ; preds = %14
  %42 = load i64, ptr %5, align 8, !tbaa !47
  %43 = icmp eq i64 %42, 4
  br i1 %43, label %44, label %68

44:                                               ; preds = %41
  %45 = load ptr, ptr %4, align 8, !tbaa !43
  %46 = getelementptr inbounds i8, ptr %45, i64 3
  %47 = load i8, ptr %46, align 1, !tbaa !42
  %48 = call i32 @hex_char_to_number(i8 noundef zeroext %47)
  %49 = shl i32 %48, 4
  %50 = load ptr, ptr %4, align 8, !tbaa !43
  %51 = getelementptr inbounds i8, ptr %50, i64 2
  %52 = load i8, ptr %51, align 1, !tbaa !42
  %53 = call i32 @hex_char_to_number(i8 noundef zeroext %52)
  %54 = shl i32 %53, 12
  %55 = or i32 %49, %54
  %56 = load ptr, ptr %4, align 8, !tbaa !43
  %57 = getelementptr inbounds i8, ptr %56, i64 1
  %58 = load i8, ptr %57, align 1, !tbaa !42
  %59 = call i32 @hex_char_to_number(i8 noundef zeroext %58)
  %60 = shl i32 %59, 20
  %61 = or i32 %55, %60
  %62 = load ptr, ptr %4, align 8, !tbaa !43
  %63 = getelementptr inbounds i8, ptr %62, i64 0
  %64 = load i8, ptr %63, align 1, !tbaa !42
  %65 = call i32 @hex_char_to_number(i8 noundef zeroext %64)
  %66 = shl i32 %65, 28
  %67 = or i32 %61, %66
  store i32 %67, ptr %6, align 4, !tbaa !46
  br label %160

68:                                               ; preds = %41
  %69 = load i64, ptr %5, align 8, !tbaa !47
  %70 = icmp eq i64 %69, 6
  br i1 %70, label %71, label %108

71:                                               ; preds = %68
  %72 = load ptr, ptr %4, align 8, !tbaa !43
  %73 = getelementptr inbounds i8, ptr %72, i64 5
  %74 = load i8, ptr %73, align 1, !tbaa !42
  %75 = call i32 @hex_char_to_number(i8 noundef zeroext %74)
  %76 = load ptr, ptr %4, align 8, !tbaa !43
  %77 = getelementptr inbounds i8, ptr %76, i64 4
  %78 = load i8, ptr %77, align 1, !tbaa !42
  %79 = call i32 @hex_char_to_number(i8 noundef zeroext %78)
  %80 = shl i32 %79, 4
  %81 = or i32 %75, %80
  %82 = load ptr, ptr %4, align 8, !tbaa !43
  %83 = getelementptr inbounds i8, ptr %82, i64 3
  %84 = load i8, ptr %83, align 1, !tbaa !42
  %85 = call i32 @hex_char_to_number(i8 noundef zeroext %84)
  %86 = shl i32 %85, 8
  %87 = or i32 %81, %86
  %88 = load ptr, ptr %4, align 8, !tbaa !43
  %89 = getelementptr inbounds i8, ptr %88, i64 2
  %90 = load i8, ptr %89, align 1, !tbaa !42
  %91 = call i32 @hex_char_to_number(i8 noundef zeroext %90)
  %92 = shl i32 %91, 12
  %93 = or i32 %87, %92
  %94 = load ptr, ptr %4, align 8, !tbaa !43
  %95 = getelementptr inbounds i8, ptr %94, i64 1
  %96 = load i8, ptr %95, align 1, !tbaa !42
  %97 = call i32 @hex_char_to_number(i8 noundef zeroext %96)
  %98 = shl i32 %97, 16
  %99 = or i32 %93, %98
  %100 = load ptr, ptr %4, align 8, !tbaa !43
  %101 = getelementptr inbounds i8, ptr %100, i64 0
  %102 = load i8, ptr %101, align 1, !tbaa !42
  %103 = call i32 @hex_char_to_number(i8 noundef zeroext %102)
  %104 = shl i32 %103, 20
  %105 = or i32 %99, %104
  %106 = load i32, ptr %6, align 4, !tbaa !46
  %107 = or i32 %106, %105
  store i32 %107, ptr %6, align 4, !tbaa !46
  br label %159

108:                                              ; preds = %68
  %109 = load i64, ptr %5, align 8, !tbaa !47
  %110 = icmp eq i64 %109, 8
  br i1 %110, label %111, label %158

111:                                              ; preds = %108
  %112 = load ptr, ptr %4, align 8, !tbaa !43
  %113 = getelementptr inbounds i8, ptr %112, i64 7
  %114 = load i8, ptr %113, align 1, !tbaa !42
  %115 = call i32 @hex_char_to_number(i8 noundef zeroext %114)
  %116 = load ptr, ptr %4, align 8, !tbaa !43
  %117 = getelementptr inbounds i8, ptr %116, i64 6
  %118 = load i8, ptr %117, align 1, !tbaa !42
  %119 = call i32 @hex_char_to_number(i8 noundef zeroext %118)
  %120 = shl i32 %119, 4
  %121 = or i32 %115, %120
  %122 = load ptr, ptr %4, align 8, !tbaa !43
  %123 = getelementptr inbounds i8, ptr %122, i64 5
  %124 = load i8, ptr %123, align 1, !tbaa !42
  %125 = call i32 @hex_char_to_number(i8 noundef zeroext %124)
  %126 = shl i32 %125, 8
  %127 = or i32 %121, %126
  %128 = load ptr, ptr %4, align 8, !tbaa !43
  %129 = getelementptr inbounds i8, ptr %128, i64 4
  %130 = load i8, ptr %129, align 1, !tbaa !42
  %131 = call i32 @hex_char_to_number(i8 noundef zeroext %130)
  %132 = shl i32 %131, 12
  %133 = or i32 %127, %132
  %134 = load ptr, ptr %4, align 8, !tbaa !43
  %135 = getelementptr inbounds i8, ptr %134, i64 3
  %136 = load i8, ptr %135, align 1, !tbaa !42
  %137 = call i32 @hex_char_to_number(i8 noundef zeroext %136)
  %138 = shl i32 %137, 16
  %139 = or i32 %133, %138
  %140 = load ptr, ptr %4, align 8, !tbaa !43
  %141 = getelementptr inbounds i8, ptr %140, i64 2
  %142 = load i8, ptr %141, align 1, !tbaa !42
  %143 = call i32 @hex_char_to_number(i8 noundef zeroext %142)
  %144 = shl i32 %143, 20
  %145 = or i32 %139, %144
  %146 = load ptr, ptr %4, align 8, !tbaa !43
  %147 = getelementptr inbounds i8, ptr %146, i64 1
  %148 = load i8, ptr %147, align 1, !tbaa !42
  %149 = call i32 @hex_char_to_number(i8 noundef zeroext %148)
  %150 = shl i32 %149, 24
  %151 = or i32 %145, %150
  %152 = load ptr, ptr %4, align 8, !tbaa !43
  %153 = getelementptr inbounds i8, ptr %152, i64 0
  %154 = load i8, ptr %153, align 1, !tbaa !42
  %155 = call i32 @hex_char_to_number(i8 noundef zeroext %154)
  %156 = shl i32 %155, 28
  %157 = or i32 %151, %156
  store i32 %157, ptr %6, align 4, !tbaa !46
  br label %158

158:                                              ; preds = %111, %108
  br label %159

159:                                              ; preds = %158, %71
  br label %160

160:                                              ; preds = %159, %44
  br label %161

161:                                              ; preds = %160, %21
  br label %186

162:                                              ; preds = %2
  %163 = load i64, ptr %5, align 8, !tbaa !47
  %164 = icmp ugt i64 %163, 99
  br i1 %164, label %165, label %166

165:                                              ; preds = %162
  br label %168

166:                                              ; preds = %162
  %167 = load i64, ptr %5, align 8, !tbaa !47
  br label %168

168:                                              ; preds = %166, %165
  %169 = phi i64 [ 99, %165 ], [ %167, %166 ]
  store i64 %169, ptr %5, align 8, !tbaa !47
  %170 = getelementptr inbounds [100 x i8], ptr %8, i64 0, i64 0
  %171 = load ptr, ptr %4, align 8, !tbaa !43
  %172 = load i64, ptr %5, align 8, !tbaa !47
  %173 = call ptr @strncpy(ptr noundef %170, ptr noundef %171, i64 noundef %172) #8
  %174 = load i64, ptr %5, align 8, !tbaa !47
  %175 = getelementptr inbounds nuw [100 x i8], ptr %8, i64 0, i64 %174
  store i8 0, ptr %175, align 1, !tbaa !42
  %176 = getelementptr inbounds [100 x i8], ptr %8, i64 0, i64 0
  %177 = call ptr @bsearch(ptr noundef %176, ptr noundef @color_table, i64 noundef 141, i64 noundef 16, ptr noundef @color_table_compare)
  store ptr %177, ptr %7, align 8, !tbaa !62
  %178 = load ptr, ptr %7, align 8, !tbaa !62
  %179 = icmp ne ptr %178, null
  br i1 %179, label %182, label %180

180:                                              ; preds = %168
  %181 = load i32, ptr %6, align 4, !tbaa !46
  store i32 %181, ptr %3, align 4
  store i32 1, ptr %9, align 4
  br label %188

182:                                              ; preds = %168
  %183 = load ptr, ptr %7, align 8, !tbaa !62
  %184 = getelementptr inbounds nuw %struct.ColorEntry, ptr %183, i32 0, i32 1
  %185 = load i32, ptr %184, align 8, !tbaa !64
  store i32 %185, ptr %6, align 4, !tbaa !46
  br label %186

186:                                              ; preds = %182, %161
  %187 = load i32, ptr %6, align 4, !tbaa !46
  store i32 %187, ptr %3, align 4
  store i32 1, ptr %9, align 4
  br label %188

188:                                              ; preds = %186, %180
  call void @llvm.lifetime.end.p0(i64 100, ptr %8) #8
  call void @llvm.lifetime.end.p0(i64 8, ptr %7) #8
  call void @llvm.lifetime.end.p0(i64 4, ptr %6) #8
  %189 = load i32, ptr %3, align 4
  ret i32 %189
}