; Function Attrs: nounwind uwtable
define internal fastcc i32 @color_string_to_rgba(ptr noundef nonnull readonly captures(none) %0, i64 noundef %1) unnamed_addr #0 {
  %3 = alloca [100 x i8], align 16
  call void @llvm.lifetime.start.p0(i64 100, ptr nonnull %3) #11
  %4 = load i8, ptr %0, align 1, !tbaa !33
  %5 = icmp eq i8 %4, 35
  br i1 %5, label %6, label %172

6:                                                ; preds = %2
  %7 = getelementptr inbounds nuw i8, ptr %0, i64 1
  switch i64 %1, label %bsearch.exit.thread [
    i64 4, label %8
    i64 5, label %32
    i64 7, label %63
    i64 9, label %110
  ]

8:                                                ; preds = %6
  %9 = getelementptr inbounds nuw i8, ptr %0, i64 3
  %10 = load i8, ptr %9, align 1, !tbaa !33
  %11 = zext i8 %10 to i64
  %12 = getelementptr inbounds nuw [256 x i8], ptr @hex_char_to_number.lut, i64 0, i64 %11
  %13 = load i8, ptr %12, align 1, !tbaa !33
  %14 = zext i8 %13 to i32
  %15 = shl nuw nsw i32 %14, 4
  %16 = getelementptr inbounds nuw i8, ptr %0, i64 2
  %17 = load i8, ptr %16, align 1, !tbaa !33
  %18 = zext i8 %17 to i64
  %19 = getelementptr inbounds nuw [256 x i8], ptr @hex_char_to_number.lut, i64 0, i64 %18
  %20 = load i8, ptr %19, align 1, !tbaa !33
  %21 = zext i8 %20 to i32
  %22 = shl nuw nsw i32 %21, 12
  %23 = load i8, ptr %7, align 1, !tbaa !33
  %24 = zext i8 %23 to i64
  %25 = getelementptr inbounds nuw [256 x i8], ptr @hex_char_to_number.lut, i64 0, i64 %24
  %26 = load i8, ptr %25, align 1, !tbaa !33
  %27 = zext i8 %26 to i32
  %28 = shl nuw nsw i32 %27, 20
  %29 = or disjoint i32 %15, %22
  %30 = or disjoint i32 %29, %28
  %31 = or i32 %30, -16777216
  br label %bsearch.exit.thread

32:                                               ; preds = %6
  %33 = getelementptr inbounds nuw i8, ptr %0, i64 4
  %34 = load i8, ptr %33, align 1, !tbaa !33
  %35 = zext i8 %34 to i64
  %36 = getelementptr inbounds nuw [256 x i8], ptr @hex_char_to_number.lut, i64 0, i64 %35
  %37 = load i8, ptr %36, align 1, !tbaa !33
  %38 = zext i8 %37 to i32
  %39 = shl nuw nsw i32 %38, 4
  %40 = getelementptr inbounds nuw i8, ptr %0, i64 3
  %41 = load i8, ptr %40, align 1, !tbaa !33
  %42 = zext i8 %41 to i64
  %43 = getelementptr inbounds nuw [256 x i8], ptr @hex_char_to_number.lut, i64 0, i64 %42
  %44 = load i8, ptr %43, align 1, !tbaa !33
  %45 = zext i8 %44 to i32
  %46 = shl nuw nsw i32 %45, 12
  %47 = or disjoint i32 %46, %39
  %48 = getelementptr inbounds nuw i8, ptr %0, i64 2
  %49 = load i8, ptr %48, align 1, !tbaa !33
  %50 = zext i8 %49 to i64
  %51 = getelementptr inbounds nuw [256 x i8], ptr @hex_char_to_number.lut, i64 0, i64 %50
  %52 = load i8, ptr %51, align 1, !tbaa !33
  %53 = zext i8 %52 to i32
  %54 = shl nuw nsw i32 %53, 20
  %55 = or disjoint i32 %47, %54
  %56 = load i8, ptr %7, align 1, !tbaa !33
  %57 = zext i8 %56 to i64
  %58 = getelementptr inbounds nuw [256 x i8], ptr @hex_char_to_number.lut, i64 0, i64 %57
  %59 = load i8, ptr %58, align 1, !tbaa !33
  %60 = zext i8 %59 to i32
  %61 = shl i32 %60, 28
  %62 = or disjoint i32 %55, %61
  br label %bsearch.exit.thread

63:                                               ; preds = %6
  %64 = getelementptr inbounds nuw i8, ptr %0, i64 6
  %65 = load i8, ptr %64, align 1, !tbaa !33
  %66 = zext i8 %65 to i64
  %67 = getelementptr inbounds nuw [256 x i8], ptr @hex_char_to_number.lut, i64 0, i64 %66
  %68 = load i8, ptr %67, align 1, !tbaa !33
  %69 = zext i8 %68 to i32
  %70 = getelementptr inbounds nuw i8, ptr %0, i64 5
  %71 = load i8, ptr %70, align 1, !tbaa !33
  %72 = zext i8 %71 to i64
  %73 = getelementptr inbounds nuw [256 x i8], ptr @hex_char_to_number.lut, i64 0, i64 %72
  %74 = load i8, ptr %73, align 1, !tbaa !33
  %75 = zext i8 %74 to i32
  %76 = shl nuw nsw i32 %75, 4
  %77 = getelementptr inbounds nuw i8, ptr %0, i64 4
  %78 = load i8, ptr %77, align 1, !tbaa !33
  %79 = zext i8 %78 to i64
  %80 = getelementptr inbounds nuw [256 x i8], ptr @hex_char_to_number.lut, i64 0, i64 %79
  %81 = load i8, ptr %80, align 1, !tbaa !33
  %82 = zext i8 %81 to i32
  %83 = shl nuw nsw i32 %82, 8
  %84 = getelementptr inbounds nuw i8, ptr %0, i64 3
  %85 = load i8, ptr %84, align 1, !tbaa !33
  %86 = zext i8 %85 to i64
  %87 = getelementptr inbounds nuw [256 x i8], ptr @hex_char_to_number.lut, i64 0, i64 %86
  %88 = load i8, ptr %87, align 1, !tbaa !33
  %89 = zext i8 %88 to i32
  %90 = shl nuw nsw i32 %89, 12
  %91 = getelementptr inbounds nuw i8, ptr %0, i64 2
  %92 = load i8, ptr %91, align 1, !tbaa !33
  %93 = zext i8 %92 to i64
  %94 = getelementptr inbounds nuw [256 x i8], ptr @hex_char_to_number.lut, i64 0, i64 %93
  %95 = load i8, ptr %94, align 1, !tbaa !33
  %96 = zext i8 %95 to i32
  %97 = shl nuw nsw i32 %96, 16
  %98 = load i8, ptr %7, align 1, !tbaa !33
  %99 = zext i8 %98 to i64
  %100 = getelementptr inbounds nuw [256 x i8], ptr @hex_char_to_number.lut, i64 0, i64 %99
  %101 = load i8, ptr %100, align 1, !tbaa !33
  %102 = zext i8 %101 to i32
  %103 = shl nuw nsw i32 %102, 20
  %104 = or i32 %76, %69
  %105 = or i32 %104, %83
  %106 = or i32 %105, %90
  %107 = or i32 %106, %97
  %108 = or i32 %107, %103
  %109 = or i32 %108, -16777216
  br label %bsearch.exit.thread

110:                                              ; preds = %6
  %111 = getelementptr inbounds nuw i8, ptr %0, i64 8
  %112 = load i8, ptr %111, align 1, !tbaa !33
  %113 = zext i8 %112 to i64
  %114 = getelementptr inbounds nuw [256 x i8], ptr @hex_char_to_number.lut, i64 0, i64 %113
  %115 = load i8, ptr %114, align 1, !tbaa !33
  %116 = zext i8 %115 to i32
  %117 = getelementptr inbounds nuw i8, ptr %0, i64 7
  %118 = load i8, ptr %117, align 1, !tbaa !33
  %119 = zext i8 %118 to i64
  %120 = getelementptr inbounds nuw [256 x i8], ptr @hex_char_to_number.lut, i64 0, i64 %119
  %121 = load i8, ptr %120, align 1, !tbaa !33
  %122 = zext i8 %121 to i32
  %123 = shl nuw nsw i32 %122, 4
  %124 = or i32 %123, %116
  %125 = getelementptr inbounds nuw i8, ptr %0, i64 6
  %126 = load i8, ptr %125, align 1, !tbaa !33
  %127 = zext i8 %126 to i64
  %128 = getelementptr inbounds nuw [256 x i8], ptr @hex_char_to_number.lut, i64 0, i64 %127
  %129 = load i8, ptr %128, align 1, !tbaa !33
  %130 = zext i8 %129 to i32
  %131 = shl nuw nsw i32 %130, 8
  %132 = or i32 %124, %131
  %133 = getelementptr inbounds nuw i8, ptr %0, i64 5
  %134 = load i8, ptr %133, align 1, !tbaa !33
  %135 = zext i8 %134 to i64
  %136 = getelementptr inbounds nuw [256 x i8], ptr @hex_char_to_number.lut, i64 0, i64 %135
  %137 = load i8, ptr %136, align 1, !tbaa !33
  %138 = zext i8 %137 to i32
  %139 = shl nuw nsw i32 %138, 12
  %140 = or i32 %132, %139
  %141 = getelementptr inbounds nuw i8, ptr %0, i64 4
  %142 = load i8, ptr %141, align 1, !tbaa !33
  %143 = zext i8 %142 to i64
  %144 = getelementptr inbounds nuw [256 x i8], ptr @hex_char_to_number.lut, i64 0, i64 %143
  %145 = load i8, ptr %144, align 1, !tbaa !33
  %146 = zext i8 %145 to i32
  %147 = shl nuw nsw i32 %146, 16
  %148 = or i32 %140, %147
  %149 = getelementptr inbounds nuw i8, ptr %0, i64 3
  %150 = load i8, ptr %149, align 1, !tbaa !33
  %151 = zext i8 %150 to i64
  %152 = getelementptr inbounds nuw [256 x i8], ptr @hex_char_to_number.lut, i64 0, i64 %151
  %153 = load i8, ptr %152, align 1, !tbaa !33
  %154 = zext i8 %153 to i32
  %155 = shl nuw nsw i32 %154, 20
  %156 = or i32 %148, %155
  %157 = getelementptr inbounds nuw i8, ptr %0, i64 2
  %158 = load i8, ptr %157, align 1, !tbaa !33
  %159 = zext i8 %158 to i64
  %160 = getelementptr inbounds nuw [256 x i8], ptr @hex_char_to_number.lut, i64 0, i64 %159
  %161 = load i8, ptr %160, align 1, !tbaa !33
  %162 = zext i8 %161 to i32
  %163 = shl nuw i32 %162, 24
  %164 = or i32 %156, %163
  %165 = load i8, ptr %7, align 1, !tbaa !33
  %166 = zext i8 %165 to i64
  %167 = getelementptr inbounds nuw [256 x i8], ptr @hex_char_to_number.lut, i64 0, i64 %166
  %168 = load i8, ptr %167, align 1, !tbaa !33
  %169 = zext i8 %168 to i32
  %170 = shl i32 %169, 28
  %171 = or i32 %164, %170
  br label %bsearch.exit.thread

172:                                              ; preds = %2
  %173 = tail call i64 @llvm.umin.i64(i64 %1, i64 99)
  %174 = call ptr @strncpy(ptr noundef nonnull %3, ptr noundef nonnull %0, i64 noundef %173) #11
  %175 = getelementptr inbounds nuw [100 x i8], ptr %3, i64 0, i64 %173
  store i8 0, ptr %175, align 1, !tbaa !33
  br label %.lr.ph.i

.lr.ph.i:                                         ; preds = %186, %172
  %.01621.i = phi i64 [ %.1.i, %186 ], [ 0, %172 ]
  %.01720.i = phi i64 [ %.118.i, %186 ], [ 141, %172 ]
  %176 = add i64 %.01720.i, %.01621.i
  %177 = lshr i64 %176, 1
  %178 = shl i64 %177, 4
  %179 = getelementptr inbounds nuw i8, ptr @color_table, i64 %178
  %180 = load ptr, ptr %179, align 16, !tbaa !50
  %181 = call i32 @av_strcasecmp(ptr noundef nonnull %3, ptr noundef %180) #11
  %182 = icmp slt i32 %181, 0
  br i1 %182, label %186, label %183

183:                                              ; preds = %.lr.ph.i
  %.not.i = icmp eq i32 %181, 0
  br i1 %.not.i, label %bsearch.exit, label %184

184:                                              ; preds = %183
  %185 = add nuw i64 %177, 1
  br label %186

186:                                              ; preds = %184, %.lr.ph.i
  %.118.i = phi i64 [ %.01720.i, %184 ], [ %177, %.lr.ph.i ]
  %.1.i = phi i64 [ %185, %184 ], [ %.01621.i, %.lr.ph.i ]
  %187 = icmp ult i64 %.1.i, %.118.i
  br i1 %187, label %.lr.ph.i, label %bsearch.exit.thread, !llvm.loop !52

bsearch.exit:                                     ; preds = %183
  %188 = getelementptr inbounds nuw i8, ptr @color_table, i64 %178
  %189 = getelementptr inbounds nuw i8, ptr %188, i64 8
  %190 = load i32, ptr %189, align 8, !tbaa !53
  br label %bsearch.exit.thread

bsearch.exit.thread:                              ; preds = %186, %bsearch.exit, %32, %110, %63, %8, %6
  %.0 = phi i32 [ %31, %8 ], [ %62, %32 ], [ %109, %63 ], [ %171, %110 ], [ %190, %bsearch.exit ], [ -16777216, %6 ], [ -16777216, %186 ]
  call void @llvm.lifetime.end.p0(i64 100, ptr nonnull %3) #11
  ret i32 %.0
}